target datalayout = "e-m:e-p270:32:32-p271:32:32-p272:64:64-i64:64-i128:128-f80:128-n8:16:32:64-S128"
target triple = "x86_64-pc-linux-gnu"

; Function Attrs: mustprogress nounwind uwtable
define hidden noundef i64 @_ZN2cv12ppf_match_3d4hashEj(i32 noundef %0) #4 {
  %2 = alloca i32, align 4
  store i32 %0, ptr %2, align 4, !tbaa !3
  %3 = load i32, ptr %2, align 4, !tbaa !3
  %4 = add i32 %3, 2127912214
  %5 = load i32, ptr %2, align 4, !tbaa !3
  %6 = shl i32 %5, 12
  %7 = add i32 %4, %6
  store i32 %7, ptr %2, align 4, !tbaa !3
  %8 = load i32, ptr %2, align 4, !tbaa !3
  %9 = xor i32 %8, -949894596
  %10 = load i32, ptr %2, align 4, !tbaa !3
  %11 = lshr i32 %10, 19
  %12 = xor i32 %9, %11
  store i32 %12, ptr %2, align 4, !tbaa !3
  %13 = load i32, ptr %2, align 4, !tbaa !3
  %14 = add i32 %13, 374761393
  %15 = load i32, ptr %2, align 4, !tbaa !3
  %16 = shl i32 %15, 5
  %17 = add i32 %14, %16
  store i32 %17, ptr %2, align 4, !tbaa !3
  %18 = load i32, ptr %2, align 4, !tbaa !3
  %19 = add i32 %18, -744332180
  %20 = load i32, ptr %2, align 4, !tbaa !3
  %21 = shl i32 %20, 9
  %22 = xor i32 %19, %21
  store i32 %22, ptr %2, align 4, !tbaa !3
  %23 = load i32, ptr %2, align 4, !tbaa !3
  %24 = add i32 %23, -42973499
  %25 = load i32, ptr %2, align 4, !tbaa !3
  %26 = shl i32 %25, 3
  %27 = add i32 %24, %26
  store i32 %27, ptr %2, align 4, !tbaa !3
  %28 = load i32, ptr %2, align 4, !tbaa !3
  %29 = xor i32 %28, -1252372727
  %30 = load i32, ptr %2, align 4, !tbaa !3
  %31 = lshr i32 %30, 16
  %32 = xor i32 %29, %31
  store i32 %32, ptr %2, align 4, !tbaa !3
  %33 = load i32, ptr %2, align 4, !tbaa !3
  %34 = zext i32 %33 to i64
  ret i64 %34
}