; Function Attrs: mustprogress nofree norecurse nosync nounwind willreturn memory(none) uwtable
define hidden noundef range(i64 0, 4294967296) i64 @_ZN2cv12ppf_match_3d4hashEj(i32 noundef %0) #3 {
  %2 = add i32 %0, 2127912214
  %3 = shl i32 %0, 12
  %4 = add i32 %2, %3
  %5 = lshr i32 %4, 19
  %6 = xor i32 %4, %5
  %7 = xor i32 %6, -949894596
  %8 = add i32 %7, 374761393
  %9 = shl i32 %7, 5
  %10 = add i32 %8, %9
  %11 = add i32 %10, -744332180
  %12 = shl i32 %10, 9
  %13 = xor i32 %11, %12
  %14 = add i32 %13, -42973499
  %15 = shl i32 %13, 3
  %16 = add i32 %14, %15
  %17 = lshr i32 %16, 16
  %18 = xor i32 %16, %17
  %19 = xor i32 %18, -1252372727
  %20 = zext i32 %19 to i64
  ret i64 %20
}